; Function Attrs: mustprogress uwtable
define noundef i32 @_Z8xdr_charP3XDRPc(ptr noundef %0, ptr nocapture noundef %1) local_unnamed_addr #0 {
  %3 = alloca i32, align 4
  %4 = load i8, ptr %1, align 1
  call void @llvm.lifetime.start.p0(i64 4, ptr nonnull %3)
  %5 = load i32, ptr %0, align 8
  switch i32 %5, label %_Z7xdr_intP3XDRPi.exit.thread [
    i32 0, label %_Z7xdr_intP3XDRPi.exit
    i32 1, label %6
    i32 2, label %_Z7xdr_intP3XDRPi.exit.thread9
  ]

6:                                                ; preds = %2
  %7 = getelementptr inbounds i8, ptr %0, i64 8
  %8 = load ptr, ptr %7, align 8
  %9 = getelementptr inbounds i8, ptr %8, i64 48
  %10 = load ptr, ptr %9, align 8
  %11 = call noundef i32 %10(ptr noundef nonnull %0, ptr noundef nonnull %3)
  %.not.i = icmp eq i32 %11, 0
  br i1 %.not.i, label %_Z7xdr_intP3XDRPi.exit.thread, label %12

12:                                               ; preds = %6
  %13 = load i32, ptr %3, align 4
  %14 = trunc i32 %13 to i8
  br label %_Z7xdr_intP3XDRPi.exit.thread9

_Z7xdr_intP3XDRPi.exit.thread:                    ; preds = %6, %2
  call void @llvm.lifetime.end.p0(i64 4, ptr nonnull %3)
  br label %22

_Z7xdr_intP3XDRPi.exit.thread9:                   ; preds = %12, %2
  %.04.ph = phi i8 [ %14, %12 ], [ %4, %2 ]
  call void @llvm.lifetime.end.p0(i64 4, ptr nonnull %3)
  br label %21

_Z7xdr_intP3XDRPi.exit:                           ; preds = %2
  %15 = sext i8 %4 to i32
  store i32 %15, ptr %3, align 4
  %16 = getelementptr inbounds i8, ptr %0, i64 8
  %17 = load ptr, ptr %16, align 8
  %18 = getelementptr inbounds i8, ptr %17, i64 56
  %19 = load ptr, ptr %18, align 8
  %20 = call noundef i32 %19(ptr noundef nonnull %0, ptr noundef nonnull %3)
  call void @llvm.lifetime.end.p0(i64 4, ptr nonnull %3)
  %.not = icmp eq i32 %20, 0
  br i1 %.not, label %22, label %21

21:                                               ; preds = %_Z7xdr_intP3XDRPi.exit.thread9, %_Z7xdr_intP3XDRPi.exit
  %.0413 = phi i8 [ %.04.ph, %_Z7xdr_intP3XDRPi.exit.thread9 ], [ %4, %_Z7xdr_intP3XDRPi.exit ]
  store i8 %.0413, ptr %1, align 1
  br label %22

22:                                               ; preds = %_Z7xdr_intP3XDRPi.exit.thread, %_Z7xdr_intP3XDRPi.exit, %21
  %.0 = phi i32 [ 1, %21 ], [ 0, %_Z7xdr_intP3XDRPi.exit ], [ 0, %_Z7xdr_intP3XDRPi.exit.thread ]
  ret i32 %.0
}